target datalayout = "e-m:e-p270:32:32-p271:32:32-p272:64:64-i64:64-i128:128-f80:128-n8:16:32:64-S128"
target triple = "x86_64-pc-linux-gnu"

%"struct.pkpy::Type" = type { i16 }
%"class.std::basic_string_view" = type { i64, ptr }
%class.anon.375 = type { i8 }
%"struct.pkpy::PyObject" = type { ptr, i8, i8, %"struct.pkpy::Type", ptr }
%"struct.std::hash.630" = type { i8 }
%"struct.pkpy::Bytes" = type <{ ptr, i32, [4 x i8] }>
%"struct.pkpy::Py_.635" = type { %"struct.pkpy::PyObject", %"struct.pkpy::Bytes" }

@__const._ZN4pkpy18_py_cast__internalIRNS_5BytesELb0EEET_PNS_2VMEPNS_8PyObjectE.const_type = private unnamed_addr constant %"struct.pkpy::Type" { i16 16 }, align 2

; Function Attrs: mustprogress uwtable
define linkonce_odr noundef i64 @_ZNSt10_Hash_impl4hashEPKvmm(ptr noundef %0, i64 noundef %1, i64 noundef %2) #4 comdat align 2 {
  %4 = alloca ptr, align 8
  %5 = alloca i64, align 8
  %6 = alloca i64, align 8
  store ptr %0, ptr %4, align 8
  store i64 %1, ptr %5, align 8
  store i64 %2, ptr %6, align 8
  %7 = load ptr, ptr %4, align 8
  %8 = load i64, ptr %5, align 8
  %9 = load i64, ptr %6, align 8
  %10 = call noundef i64 @_ZSt11_Hash_bytesPKvmm(ptr noundef %7, i64 noundef %8, i64 noundef %9)
  ret i64 %10
}

; Function Attrs: mustprogress nounwind uwtable
define linkonce_odr noundef i64 @_ZNKSt17basic_string_viewIcSt11char_traitsIcEE6lengthEv(ptr noundef nonnull align 8 dereferenceable(16) %0) #5 comdat align 2 {
  %2 = alloca ptr, align 8
  store ptr %0, ptr %2, align 8
  %3 = load ptr, ptr %2, align 8
  %4 = getelementptr inbounds %"class.std::basic_string_view", ptr %3, i32 0, i32 0
  %5 = load i64, ptr %4, align 8
  ret i64 %5
}

; Function Attrs: mustprogress nounwind uwtable
define linkonce_odr noundef ptr @_ZNKSt17basic_string_viewIcSt11char_traitsIcEE4dataEv(ptr noundef nonnull align 8 dereferenceable(16) %0) #5 comdat align 2 {
  %2 = alloca ptr, align 8
  store ptr %0, ptr %2, align 8
  %3 = load ptr, ptr %2, align 8
  %4 = getelementptr inbounds %"class.std::basic_string_view", ptr %3, i32 0, i32 1
  %5 = load ptr, ptr %4, align 8
  ret ptr %5
}

; Function Attrs: mustprogress nounwind uwtable
define linkonce_odr noundef nonnull align 8 dereferenceable(12) ptr @_ZN4pkpy18_py_cast__internalIRNS_5BytesELb0EEET_PNS_2VMEPNS_8PyObjectE(ptr noundef %0, ptr noundef %1) #5 comdat {
  %3 = alloca ptr, align 8
  %4 = alloca ptr, align 8
  %5 = alloca %"struct.pkpy::Type", align 2
  store ptr %0, ptr %3, align 8
  store ptr %1, ptr %4, align 8
  call void @llvm.memcpy.p0.p0.i64(ptr align 2 %5, ptr align 2 @__const._ZN4pkpy18_py_cast__internalIRNS_5BytesELb0EEET_PNS_2VMEPNS_8PyObjectE.const_type, i64 2, i1 false)
  %6 = load ptr, ptr %4, align 8
  %7 = getelementptr inbounds %"struct.pkpy::Py_.635", ptr %6, i32 0, i32 1
  ret ptr %7
}

; Function Attrs: mustprogress nounwind uwtable
define linkonce_odr noundef i64 @_ZNKSt4hashISt17basic_string_viewIcSt11char_traitsIcEEEclERKS3_(ptr noundef nonnull align 1 dereferenceable(1) %0, ptr noundef nonnull align 8 dereferenceable(16) %1) #5 comdat align 2 personality ptr @__gxx_personality_v0 {
  %3 = alloca ptr, align 8
  %4 = alloca ptr, align 8
  store ptr %0, ptr %3, align 8
  store ptr %1, ptr %4, align 8
  %5 = load ptr, ptr %4, align 8
  %6 = call noundef ptr @_ZNKSt17basic_string_viewIcSt11char_traitsIcEE4dataEv(ptr noundef nonnull align 8 dereferenceable(16) %5) #3
  %7 = load ptr, ptr %4, align 8
  %8 = call noundef i64 @_ZNKSt17basic_string_viewIcSt11char_traitsIcEE6lengthEv(ptr noundef nonnull align 8 dereferenceable(16) %7) #3
  %9 = invoke noundef i64 @_ZNSt10_Hash_impl4hashEPKvmm(ptr noundef %6, i64 noundef %8, i64 noundef 3339675911)
          to label %10 unwind label %11

10:                                               ; preds = %2
  ret i64 %9

11:                                               ; preds = %2
  %12 = landingpad { ptr, i32 }
          catch ptr null
  %13 = extractvalue { ptr, i32 } %12, 0
  call void @__clang_call_terminate(ptr %13) #21
  unreachable
}

; Function Attrs: mustprogress nounwind uwtable
define linkonce_odr void @_ZNSt17basic_string_viewIcSt11char_traitsIcEEC2EPKcm(ptr noundef nonnull align 8 dereferenceable(16) %0, ptr noundef %1, i64 noundef %2) unnamed_addr #5 comdat align 2 {
  %4 = alloca ptr, align 8
  %5 = alloca ptr, align 8
  %6 = alloca i64, align 8
  store ptr %0, ptr %4, align 8
  store ptr %1, ptr %5, align 8
  store i64 %2, ptr %6, align 8
  %7 = load ptr, ptr %4, align 8
  %8 = getelementptr inbounds %"class.std::basic_string_view", ptr %7, i32 0, i32 0
  %9 = load i64, ptr %6, align 8
  store i64 %9, ptr %8, align 8
  %10 = getelementptr inbounds %"class.std::basic_string_view", ptr %7, i32 0, i32 1
  %11 = load ptr, ptr %5, align 8
  store ptr %11, ptr %10, align 8
  ret void
}

; Function Attrs: mustprogress nounwind uwtable
define linkonce_odr noundef i32 @_ZNK4pkpy5Bytes4sizeEv(ptr noundef nonnull align 8 dereferenceable(12) %0) #5 comdat align 2 {
  %2 = alloca ptr, align 8
  store ptr %0, ptr %2, align 8
  %3 = load ptr, ptr %2, align 8
  %4 = getelementptr inbounds %"struct.pkpy::Bytes", ptr %3, i32 0, i32 1
  %5 = load i32, ptr %4, align 8
  ret i32 %5
}

; Function Attrs: mustprogress nounwind uwtable
define linkonce_odr noundef ptr @_ZNK4pkpy5Bytes4dataEv(ptr noundef nonnull align 8 dereferenceable(12) %0) #5 comdat align 2 {
  %2 = alloca ptr, align 8
  store ptr %0, ptr %2, align 8
  %3 = load ptr, ptr %2, align 8
  %4 = getelementptr inbounds %"struct.pkpy::Bytes", ptr %3, i32 0, i32 0
  %5 = load ptr, ptr %4, align 8
  ret ptr %5
}

; Function Attrs: mustprogress uwtable
define linkonce_odr noundef nonnull align 8 dereferenceable(12) ptr @_ZN4pkpy8_py_castIRNS_5BytesEEET_PNS_2VMEPNS_8PyObjectE(ptr noundef %0, ptr noundef %1) #4 comdat {
  %3 = alloca ptr, align 8
  %4 = alloca ptr, align 8
  store ptr %0, ptr %3, align 8
  store ptr %1, ptr %4, align 8
  %5 = load ptr, ptr %3, align 8
  %6 = load ptr, ptr %4, align 8
  %7 = call noundef nonnull align 8 dereferenceable(12) ptr @_ZN4pkpy18_py_cast__internalIRNS_5BytesELb0EEET_PNS_2VMEPNS_8PyObjectE(ptr noundef %5, ptr noundef %6)
  ret ptr %7
}

; Function Attrs: mustprogress uwtable
define internal noundef i64 @"_ZZN4pkpy15__init_builtinsEPNS_2VMEENK5$_160clES1_PNS_8PyObjectE"(ptr noundef nonnull align 1 dereferenceable(1) %0, ptr noundef %1, ptr noundef %2) #4 align 2 {
  %4 = alloca ptr, align 8
  %5 = alloca ptr, align 8
  %6 = alloca ptr, align 8
  %7 = alloca ptr, align 8
  %8 = alloca %"class.std::basic_string_view", align 8
  %9 = alloca %"struct.std::hash.630", align 1
  store ptr %0, ptr %4, align 8
  store ptr %1, ptr %5, align 8
  store ptr %2, ptr %6, align 8
  %10 = load ptr, ptr %5, align 8
  %11 = load ptr, ptr %6, align 8
  %12 = call noundef nonnull align 8 dereferenceable(12) ptr @_ZN4pkpy8_py_castIRNS_5BytesEEET_PNS_2VMEPNS_8PyObjectE(ptr noundef %10, ptr noundef %11)
  store ptr %12, ptr %7, align 8
  %13 = load ptr, ptr %7, align 8
  %14 = call noundef ptr @_ZNK4pkpy5Bytes4dataEv(ptr noundef nonnull align 8 dereferenceable(12) %13) #3
  %15 = load ptr, ptr %7, align 8
  %16 = call noundef i32 @_ZNK4pkpy5Bytes4sizeEv(ptr noundef nonnull align 8 dereferenceable(12) %15) #3
  %17 = sext i32 %16 to i64
  call void @_ZNSt17basic_string_viewIcSt11char_traitsIcEEC2EPKcm(ptr noundef nonnull align 8 dereferenceable(16) %8, ptr noundef %14, i64 noundef %17) #3
  %18 = call noundef i64 @_ZNKSt4hashISt17basic_string_viewIcSt11char_traitsIcEEEclERKS3_(ptr noundef nonnull align 1 dereferenceable(1) %9, ptr noundef nonnull align 8 dereferenceable(16) %8) #3
  ret i64 %18
}

; Function Attrs: mustprogress uwtable
define internal noundef i64 @"_ZZN4pkpy15__init_builtinsEPNS_2VMEEN5$_1608__invokeES1_PNS_8PyObjectE"(ptr noundef %0, ptr noundef %1) #4 align 2 {
  %3 = alloca ptr, align 8
  %4 = alloca ptr, align 8
  %5 = alloca %class.anon.375, align 1
  store ptr %0, ptr %3, align 8
  store ptr %1, ptr %4, align 8
  %6 = load ptr, ptr %3, align 8
  %7 = load ptr, ptr %4, align 8
  %8 = call noundef i64 @"_ZZN4pkpy15__init_builtinsEPNS_2VMEENK5$_160clES1_PNS_8PyObjectE"(ptr noundef nonnull align 1 dereferenceable(1) %5, ptr noundef %6, ptr noundef %7)
  ret i64 %8
}