; Function Attrs: mustprogress nounwind uwtable
define internal noundef i64 @"_ZZN4pkpy15__init_builtinsEPNS_2VMEEN5$_1608__invokeES1_PNS_8PyObjectE"(ptr nocapture readnone %0, ptr nocapture noundef readonly %1) #3 align 2 personality ptr @__gxx_personality_v0 {
  %3 = getelementptr i8, ptr %1, i64 24
  %.val = load ptr, ptr %3, align 8
  %4 = getelementptr i8, ptr %1, i64 32
  %.val2 = load i32, ptr %4, align 8
  %5 = sext i32 %.val2 to i64
  %6 = invoke noundef i64 @_ZSt11_Hash_bytesPKvmm(ptr noundef %.val, i64 noundef %5, i64 noundef 3339675911)
          to label %"_ZZN4pkpy15__init_builtinsEPNS_2VMEENK5$_160clES1_PNS_8PyObjectE.exit" unwind label %7

7:                                                ; preds = %2
  %8 = landingpad { ptr, i32 }
          catch ptr null
  %9 = extractvalue { ptr, i32 } %8, 0
  tail call void @__clang_call_terminate(ptr %9) #34
  unreachable

"_ZZN4pkpy15__init_builtinsEPNS_2VMEENK5$_160clES1_PNS_8PyObjectE.exit": ; preds = %2
  ret i64 %6
}